Certificate:
    Data:
        Version: 3 (0x2)
        Serial Number:
            ac:9f:c3:c7:64:d5:dd:41
    Signature Algorithm: sha256WithRSAEncryption
        Issuer: C=ZZ, O=Fake Org, OU=Hosts, CN=Fake Org Fake CA - d63b1c9f
        Validity
            Not Before: Dec 15 14:14:18 2016 GMT
            Not After : Dec 15 14:14:18 2017 GMT
        Subject: C=ZZ, O=Fake Org, OU=Hosts, CN=puppet.simp.test
        Subject Public Key Info:
            Public Key Algorithm: rsaEncryption
                Public-Key: (2048 bit)
                Modulus:
                    00:d8:66:e3:7b:5f:51:18:fa:6e:6c:66:15:30:8c:
                    79:ab:28:13:b0:7c:6c:cb:44:2f:2f:ae:aa:18:53:
                    62:63:f1:51:a1:af:b5:01:bf:cc:84:84:e1:66:ad:
                    e4:a7:8b:77:a4:6a:02:80:d1:45:40:d6:f5:21:d2:
                    1e:ff:61:6f:a7:54:e8:68:21:1d:6a:5a:d2:cc:92:
                    2c:2c:8d:5d:44:67:a9:95:0c:31:47:b0:4d:94:75:
                    a2:1d:b8:19:d5:8f:b1:57:9a:49:ed:12:47:79:c9:
                    b8:de:de:e8:1c:00:47:ec:81:e8:79:43:55:de:1a:
                    11:50:6c:4c:67:3b:35:a5:e6:51:e2:ee:ab:bf:8b:
                    bb:ff:fc:39:47:b2:2b:cc:60:9e:40:c9:46:dd:0d:
                    27:04:91:1a:8b:40:a0:f6:c6:bc:ed:98:fa:70:e9:
                    22:a5:c8:09:48:37:07:5a:d7:31:dc:64:44:75:2b:
                    b3:eb:3b:9a:73:f9:2e:3b:1d:12:a5:b1:21:4c:26:
                    5d:06:1e:e8:fa:db:aa:5f:b7:93:2d:c8:b6:88:9d:
                    f1:3b:7f:bb:26:73:a4:b6:9b:1d:1e:b9:17:3a:d0:
                    1f:c6:5e:7e:0b:ef:40:15:68:0a:d3:f6:27:2f:35:
                    cb:25:c3:da:d7:36:5a:6a:9d:af:1c:d2:9e:a5:11:
                    04:27
                Exponent: 65537 (0x10001)
        X509v3 extensions:
            X509v3 Basic Constraints: 
                CA:FALSE
            Netscape Cert Type: 
                SSL Client, SSL Server, S/MIME, Object Signing
            X509v3 Key Usage: 
                Digital Signature, Non Repudiation, Key Encipherment
            X509v3 Subject Key Identifier: 
                8D:A2:41:11:56:AD:B2:1E:D2:B1:1E:8A:B0:61:C9:24:EA:A9:FB:36
            X509v3 Authority Key Identifier: 
                keyid:B1:EC:11:BA:34:E8:85:94:CF:37:93:05:0F:AC:78:DA:12:00:F2:AD
                DirName:/C=ZZ/O=Fake Org/OU=Hosts/CN=Fake Org Fake CA - d63b1c9f
                serial:AC:9F:C3:C7:64:D5:DD:40

    Signature Algorithm: sha256WithRSAEncryption
         8c:37:29:99:6a:ad:ca:ba:f8:d0:0e:cc:32:b4:25:fc:09:06:
         66:83:ea:4d:1b:7e:78:38:a9:1b:19:b2:7d:66:57:99:d3:70:
         08:ea:a0:9f:8a:fa:61:66:0e:d3:15:c9:10:f5:21:4e:31:81:
         bf:75:f7:49:81:34:3b:f0:bf:82:7f:f4:8c:81:16:87:1b:06:
         b8:36:78:b1:8b:09:1b:dc:57:ce:82:50:e6:90:8f:a4:81:40:
         27:2a:20:2e:15:bf:7d:f8:57:0e:70:5d:e4:27:13:f2:68:22:
         43:06:4d:10:45:ea:74:38:61:07:95:5d:5b:df:05:6a:47:bd:
         07:54:da:3a:e8:83:f2:da:2c:9d:1d:d5:c3:d9:5b:cd:66:1d:
         ef:ee:45:fb:40:33:6e:dc:6e:53:92:34:b4:02:8b:3e:98:c5:
         66:35:5d:20:61:bf:6a:f5:88:fd:05:62:d0:a8:b2:19:d5:04:
         77:96:07:c8:2b:78:75:ea:bb:03:2f:bc:a4:c9:80:e2:c5:c5:
         93:b8:d6:f6:10:83:0d:53:26:d9:5f:4a:13:70:0e:62:6b:be:
         18:57:91:54:7e:a7:90:fb:a5:e9:8d:2b:ae:e9:16:9f:1a:cb:
         ae:a9:82:d3:95:74:e0:a5:32:37:99:4c:d6:f8:d9:03:a6:f6:
         6e:ca:9a:d7
-----BEGIN CERTIFICATE-----
MIID+zCCAuOgAwIBAgIJAKyfw8dk1d1BMA0GCSqGSIb3DQEBCwUAMFYxCzAJBgNV
BAYTAlpaMREwDwYDVQQKEwhGYWtlIE9yZzEOMAwGA1UECxMFSG9zdHMxJDAiBgNV
BAMTG0Zha2UgT3JnIEZha2UgQ0EgLSBkNjNiMWM5ZjAeFw0xNjEyMTUxNDE0MTha
Fw0xNzEyMTUxNDE0MThaMEsxCzAJBgNVBAYTAlpaMREwDwYDVQQKEwhGYWtlIE9y
ZzEOMAwGA1UECxMFSG9zdHMxGTAXBgNVBAMTEHB1cHBldC5zaW1wLnRlc3QwggEi
MA0GCSqGSIb3DQEBAQUAA4IBDwAwggEKAoIBAQDYZuN7X1EY+m5sZhUwjHmrKBOw
fGzLRC8vrqoYU2Jj8VGhr7UBv8yEhOFmreSni3ekagKA0UVA1vUh0h7/YW+nVOho
IR1qWtLMkiwsjV1EZ6mVDDFHsE2UdaIduBnVj7FXmkntEkd5ybje3ugcAEfsgeh5
Q1XeGhFQbExnOzWl5lHi7qu/i7v//DlHsivMYJ5AyUbdDScEkRqLQKD2xrztmPpw
6SKlyAlINwda1zHcZER1K7PrO5pz+S47HRKlsSFMJl0GHuj626pft5MtyLaInfE7
f7smc6S2mx0euRc60B/GXn4L70AVaArT9icvNcslw9rXNlpqna8c0p6lEQQnAgMB
AAGjgdYwgdMwCQYDVR0TBAIwADARBglghkgBhvhCAQEEBAMCBPAwCwYDVR0PBAQD
AgXgMB0GA1UdDgQWBBSNokERVq2yHtKxHoqwYckk6qn7NjCBhgYDVR0jBH8wfYAU
sewRujTohZTPN5MFD6x42hIA8q2hWqRYMFYxCzAJBgNVBAYTAlpaMREwDwYDVQQK
EwhGYWtlIE9yZzEOMAwGA1UECxMFSG9zdHMxJDAiBgNVBAMTG0Zha2UgT3JnIEZh
a2UgQ0EgLSBkNjNiMWM5ZoIJAKyfw8dk1d1AMA0GCSqGSIb3DQEBCwUAA4IBAQCM
NymZaq3KuvjQDswytCX8CQZmg+pNG354OKkbGbJ9ZleZ03AI6qCfivphZg7TFckQ
9SFOMYG/dfdJgTQ78L+Cf/SMgRaHGwa4Nnixiwkb3FfOglDmkI+kgUAnKiAuFb99
+FcOcF3kJxPyaCJDBk0QRep0OGEHlV1b3wVqR70HVNo66IPy2iydHdXD2VvNZh3v
7kX7QDNu3G5TkjS0Aos+mMVmNV0gYb9q9Yj9BWLQqLIZ1QR3lgfIK3h16rsDL7yk
yYDixcWTuNb2EIMNUybZX0oTcA5ia74YV5FUfqeQ+6XpjSuu6RafGsuuqYLTlXTg
pTI3mUzW+NkDpvZuyprX
-----END CERTIFICATE-----
