Certificate:
    Data:
        Version: 3 (0x2)
        Serial Number:
            ac:9f:c3:c7:64:d5:dd:40
    Signature Algorithm: sha256WithRSAEncryption
        Issuer: C=ZZ, O=Fake Org, OU=Hosts, CN=Fake Org Fake CA - d63b1c9f
        Validity
            Not Before: Dec 15 14:14:18 2016 GMT
            Not After : Dec 15 14:14:18 2019 GMT
        Subject: C=ZZ, O=Fake Org, OU=Hosts, CN=Fake Org Fake CA - d63b1c9f
        Subject Public Key Info:
            Public Key Algorithm: rsaEncryption
                Public-Key: (2048 bit)
                Modulus:
                    00:9d:3d:fc:d8:59:e4:32:ce:d8:90:1a:c5:63:99:
                    cc:56:cd:4c:57:40:d4:83:cc:1d:9f:53:26:5a:6d:
                    c3:54:9a:0d:9a:c7:af:63:06:78:0b:f4:8d:c0:df:
                    8e:c0:50:b2:e4:a4:e0:f5:59:9a:d0:76:d1:17:7c:
                    45:b0:8e:34:c7:a3:99:3c:2d:88:31:e0:fc:5b:00:
                    7e:f0:8d:5c:0e:5f:fc:81:dc:6f:b8:91:30:b3:3b:
                    a6:02:af:af:8a:8c:53:76:b9:b0:67:f2:66:7d:84:
                    f6:89:66:a4:2f:4a:f1:00:61:79:5a:c8:c5:c2:97:
                    2c:05:38:85:bf:ef:ec:96:b8:50:f5:dc:d1:ca:7d:
                    12:8b:ca:b7:21:a5:f3:b7:0d:85:73:45:75:60:4c:
                    36:ff:dd:05:cf:52:af:fc:99:36:dd:64:ea:10:77:
                    76:e4:60:35:ac:c7:e3:20:10:74:19:40:a9:0b:75:
                    c7:eb:0f:5e:fb:ac:37:1f:de:21:a9:3a:65:b0:ea:
                    fe:06:ba:7e:c6:79:c7:f7:3f:67:44:dc:32:99:e0:
                    16:88:41:e2:3f:ac:09:98:21:da:b3:82:0b:19:65:
                    d6:7e:4a:b3:84:8a:41:8b:b2:ad:71:6e:26:04:51:
                    11:5f:71:02:56:94:55:df:40:cc:fc:61:2c:04:c5:
                    95:bd
                Exponent: 65537 (0x10001)
        X509v3 extensions:
            X509v3 Subject Key Identifier: 
                B1:EC:11:BA:34:E8:85:94:CF:37:93:05:0F:AC:78:DA:12:00:F2:AD
            X509v3 Authority Key Identifier: 
                keyid:B1:EC:11:BA:34:E8:85:94:CF:37:93:05:0F:AC:78:DA:12:00:F2:AD
                DirName:/C=ZZ/O=Fake Org/OU=Hosts/CN=Fake Org Fake CA - d63b1c9f
                serial:AC:9F:C3:C7:64:D5:DD:40

            X509v3 Basic Constraints: 
                CA:TRUE
    Signature Algorithm: sha256WithRSAEncryption
         89:60:7d:b0:e2:6c:f0:08:5c:57:45:9d:0f:a0:d3:e6:26:81:
         22:1f:f5:b9:0d:52:ce:8f:16:d2:a8:9e:42:1f:c5:46:48:14:
         94:73:9e:e0:79:94:85:33:1c:3f:49:42:73:fa:cd:5e:b7:c4:
         15:52:9e:0e:01:1e:36:02:b3:5c:f4:5e:45:62:3b:69:61:99:
         9e:64:39:5c:cc:c8:0b:0d:0a:25:2c:27:d2:31:72:e0:ae:07:
         f6:6c:dc:9e:cc:52:d4:fb:bf:f6:92:67:f0:19:32:67:57:f8:
         23:e3:b0:8e:f8:cc:59:e5:7a:68:60:f6:76:11:70:f3:ca:22:
         75:49:a9:78:fb:e2:cd:1a:49:c4:4f:5d:fd:26:a4:0f:f5:46:
         04:14:2e:03:13:f6:95:f8:1d:1b:89:40:77:85:89:3d:2e:5f:
         43:bc:17:2e:cf:72:8a:d3:de:59:49:fd:ef:d2:c6:8d:35:2c:
         ce:f3:9c:6f:df:b5:42:6e:74:e2:2d:02:79:b6:61:7c:51:72:
         61:76:84:3d:14:53:7c:b1:bb:20:8d:51:d0:e5:f1:09:90:a0:
         82:e9:92:61:96:4f:e6:8a:13:f2:68:ef:17:86:48:78:3e:ad:
         8d:48:74:89:e6:99:73:96:ca:a5:ac:6d:00:45:f4:da:94:f2:
         91:02:63:9c
-----BEGIN CERTIFICATE-----
MIID6TCCAtGgAwIBAgIJAKyfw8dk1d1AMA0GCSqGSIb3DQEBCwUAMFYxCzAJBgNV
BAYTAlpaMREwDwYDVQQKEwhGYWtlIE9yZzEOMAwGA1UECxMFSG9zdHMxJDAiBgNV
BAMTG0Zha2UgT3JnIEZha2UgQ0EgLSBkNjNiMWM5ZjAeFw0xNjEyMTUxNDE0MTha
Fw0xOTEyMTUxNDE0MThaMFYxCzAJBgNVBAYTAlpaMREwDwYDVQQKEwhGYWtlIE9y
ZzEOMAwGA1UECxMFSG9zdHMxJDAiBgNVBAMTG0Zha2UgT3JnIEZha2UgQ0EgLSBk
NjNiMWM5ZjCCASIwDQYJKoZIhvcNAQEBBQADggEPADCCAQoCggEBAJ09/NhZ5DLO
2JAaxWOZzFbNTFdA1IPMHZ9TJlptw1SaDZrHr2MGeAv0jcDfjsBQsuSk4PVZmtB2
0Rd8RbCONMejmTwtiDHg/FsAfvCNXA5f/IHcb7iRMLM7pgKvr4qMU3a5sGfyZn2E
9olmpC9K8QBheVrIxcKXLAU4hb/v7Ja4UPXc0cp9EovKtyGl87cNhXNFdWBMNv/d
Bc9Sr/yZNt1k6hB3duRgNazH4yAQdBlAqQt1x+sPXvusNx/eIak6ZbDq/ga6fsZ5
x/c/Z0TcMpngFohB4j+sCZgh2rOCCxll1n5Ks4SKQYuyrXFuJgRREV9xAlaUVd9A
zPxhLATFlb0CAwEAAaOBuTCBtjAdBgNVHQ4EFgQUsewRujTohZTPN5MFD6x42hIA
8q0wgYYGA1UdIwR/MH2AFLHsEbo06IWUzzeTBQ+seNoSAPKtoVqkWDBWMQswCQYD
VQQGEwJaWjERMA8GA1UEChMIRmFrZSBPcmcxDjAMBgNVBAsTBUhvc3RzMSQwIgYD
VQQDExtGYWtlIE9yZyBGYWtlIENBIC0gZDYzYjFjOWaCCQCsn8PHZNXdQDAMBgNV
HRMEBTADAQH/MA0GCSqGSIb3DQEBCwUAA4IBAQCJYH2w4mzwCFxXRZ0PoNPmJoEi
H/W5DVLOjxbSqJ5CH8VGSBSUc57geZSFMxw/SUJz+s1et8QVUp4OAR42ArNc9F5F
YjtpYZmeZDlczMgLDQolLCfSMXLgrgf2bNyezFLU+7/2kmfwGTJnV/gj47CO+MxZ
5XpoYPZ2EXDzyiJ1Sal4++LNGknET139JqQP9UYEFC4DE/aV+B0biUB3hYk9Ll9D
vBcuz3KK095ZSf3v0saNNSzO85xv37VCbnTiLQJ5tmF8UXJhdoQ9FFN8sbsgjVHQ
5fEJkKCC6ZJhlk/mihPyaO8Xhkh4Pq2NSHSJ5plzlsqlrG0ARfTalPKRAmOc
-----END CERTIFICATE-----
