Certificate:
    Data:
        Version: 3 (0x2)
        Serial Number: 12438875956978244930 (0xac9fc3c764d5dd42)
    Signature Algorithm: sha256WithRSAEncryption
        Issuer: C=ZZ, O=Fake Org, OU=Hosts, CN=Fake Org Fake CA - d63b1c9f
        Validity
            Not Before: Dec 15 15:50:06 2016 GMT
            Not After : Dec 15 15:50:06 2017 GMT
        Subject: C=ZZ, O=Fake Org, OU=Hosts, CN=puppet.simp.test
        Subject Public Key Info:
            Public Key Algorithm: rsaEncryption
                Public-Key: (2048 bit)
                Modulus:
                    00:ae:4c:21:24:0e:0c:66:b2:69:5c:32:fa:1e:af:
                    f1:31:b9:23:ac:7a:3a:03:a1:21:53:ef:14:06:df:
                    15:1b:97:65:f6:45:64:e3:ca:9d:00:b2:5e:1b:0e:
                    7e:07:b7:c1:da:13:a0:ab:b7:c5:f5:bd:89:fc:7e:
                    d6:53:d3:a8:27:a7:eb:a3:20:f9:d8:78:fe:9e:dc:
                    eb:4c:11:90:11:25:ab:95:b1:62:2f:d4:02:a0:15:
                    11:4f:b4:c5:7e:ea:fd:f6:17:39:5c:7f:90:c9:cd:
                    4b:4d:63:6c:7a:9d:71:1e:db:8e:bb:ea:28:ef:1a:
                    fb:1a:c9:f6:58:e7:0f:05:24:5f:29:02:be:40:fa:
                    ea:a5:ef:0a:be:1a:4a:0c:f4:1e:dc:d5:e0:0f:a8:
                    6e:ec:24:7c:dc:3c:6d:ee:d1:33:b4:fc:d2:fa:6d:
                    22:89:5f:35:df:52:9b:c3:a7:b3:77:b2:d2:d2:ec:
                    ff:42:9b:88:3c:d5:03:90:54:47:2d:15:03:16:44:
                    a0:45:d4:cb:e1:a3:d1:16:95:2f:05:b9:75:4a:4c:
                    fd:3f:38:90:ad:ce:c9:d1:31:4a:6e:43:63:fb:8d:
                    5c:11:30:94:c9:b2:6c:2f:fc:66:bb:de:75:12:4b:
                    02:c6:ad:7c:60:34:d7:03:83:c9:11:7e:7b:76:b5:
                    2a:61
                Exponent: 65537 (0x10001)
        X509v3 extensions:
            X509v3 Basic Constraints: 
                CA:FALSE
            Netscape Cert Type: 
                SSL Client, SSL Server, S/MIME, Object Signing
            X509v3 Key Usage: 
                Digital Signature, Non Repudiation, Key Encipherment
            X509v3 Subject Key Identifier: 
                AD:5D:36:76:48:E5:68:8C:3F:46:95:D7:A8:8D:16:79:F4:DB:AF:1A
            X509v3 Authority Key Identifier: 
                keyid:B1:EC:11:BA:34:E8:85:94:CF:37:93:05:0F:AC:78:DA:12:00:F2:AD
                DirName:/C=ZZ/O=Fake Org/OU=Hosts/CN=Fake Org Fake CA - d63b1c9f
                serial:AC:9F:C3:C7:64:D5:DD:40

    Signature Algorithm: sha256WithRSAEncryption
         92:d7:97:a9:40:f6:18:81:8b:0f:8d:61:c5:56:6a:92:82:71:
         8e:89:d8:e9:f3:27:97:24:e3:44:59:21:21:33:59:76:0e:c3:
         96:13:c6:62:1b:3b:c9:f3:fd:b4:4e:80:a1:89:af:33:3a:fe:
         1b:b3:74:e8:b7:25:f0:fb:3b:25:3d:4b:fa:ab:86:2f:5c:5d:
         e5:5a:42:c4:34:ac:6b:46:b9:8c:ff:f2:06:a4:92:90:4c:68:
         0a:dc:81:a1:30:f4:91:ff:a1:d8:db:b0:23:8e:77:8f:34:2b:
         e9:0e:ad:cb:35:93:32:c3:02:d8:9e:34:5c:2c:04:d9:49:aa:
         28:4a:da:de:06:40:3a:e8:da:47:48:cd:ac:b0:66:73:0c:db:
         07:50:bb:b8:03:6f:26:9f:93:49:3c:f4:38:b6:c9:72:cc:52:
         25:0b:23:4e:8e:41:72:14:e7:e6:e6:be:c1:14:c2:09:c0:0d:
         de:e8:1e:b1:6f:38:c0:6a:e7:ae:2d:c2:8a:16:be:e8:da:e7:
         5c:65:df:3c:05:86:bd:23:5d:c3:39:40:97:df:10:73:cf:67:
         1c:3a:11:a3:e7:6a:e9:b9:03:45:8e:4a:5a:55:e1:37:2d:fa:
         c1:68:c7:52:9f:bf:1c:d7:ca:08:ee:2a:7e:d7:c7:ed:8a:83:
         bb:7b:d1:a1
-----BEGIN CERTIFICATE-----
MIID+zCCAuOgAwIBAgIJAKyfw8dk1d1CMA0GCSqGSIb3DQEBCwUAMFYxCzAJBgNV
BAYTAlpaMREwDwYDVQQKEwhGYWtlIE9yZzEOMAwGA1UECxMFSG9zdHMxJDAiBgNV
BAMTG0Zha2UgT3JnIEZha2UgQ0EgLSBkNjNiMWM5ZjAeFw0xNjEyMTUxNTUwMDZa
Fw0xNzEyMTUxNTUwMDZaMEsxCzAJBgNVBAYTAlpaMREwDwYDVQQKEwhGYWtlIE9y
ZzEOMAwGA1UECxMFSG9zdHMxGTAXBgNVBAMTEHB1cHBldC5zaW1wLnRlc3QwggEi
MA0GCSqGSIb3DQEBAQUAA4IBDwAwggEKAoIBAQCuTCEkDgxmsmlcMvoer/ExuSOs
ejoDoSFT7xQG3xUbl2X2RWTjyp0Asl4bDn4Ht8HaE6Crt8X1vYn8ftZT06gnp+uj
IPnYeP6e3OtMEZARJauVsWIv1AKgFRFPtMV+6v32Fzlcf5DJzUtNY2x6nXEe2467
6ijvGvsayfZY5w8FJF8pAr5A+uql7wq+GkoM9B7c1eAPqG7sJHzcPG3u0TO0/NL6
bSKJXzXfUpvDp7N3stLS7P9Cm4g81QOQVEctFQMWRKBF1Mvho9EWlS8FuXVKTP0/
OJCtzsnRMUpuQ2P7jVwRMJTJsmwv/Ga73nUSSwLGrXxgNNcDg8kRfnt2tSphAgMB
AAGjgdYwgdMwCQYDVR0TBAIwADARBglghkgBhvhCAQEEBAMCBPAwCwYDVR0PBAQD
AgXgMB0GA1UdDgQWBBStXTZ2SOVojD9GldeojRZ59NuvGjCBhgYDVR0jBH8wfYAU
sewRujTohZTPN5MFD6x42hIA8q2hWqRYMFYxCzAJBgNVBAYTAlpaMREwDwYDVQQK
EwhGYWtlIE9yZzEOMAwGA1UECxMFSG9zdHMxJDAiBgNVBAMTG0Zha2UgT3JnIEZh
a2UgQ0EgLSBkNjNiMWM5ZoIJAKyfw8dk1d1AMA0GCSqGSIb3DQEBCwUAA4IBAQCS
15epQPYYgYsPjWHFVmqSgnGOidjp8yeXJONEWSEhM1l2DsOWE8ZiGzvJ8/20ToCh
ia8zOv4bs3TotyXw+zslPUv6q4YvXF3lWkLENKxrRrmM//IGpJKQTGgK3IGhMPSR
/6HY27AjjnePNCvpDq3LNZMywwLYnjRcLATZSaooStreBkA66NpHSM2ssGZzDNsH
ULu4A28mn5NJPPQ4tslyzFIlCyNOjkFyFOfm5r7BFMIJwA3e6B6xbzjAaueuLcKK
Fr7o2udcZd88BYa9I13DOUCX3xBzz2ccOhGj52rpuQNFjkpaVeE3LfrBaMdSn78c
18oI7ip+18ftioO7e9Gh
-----END CERTIFICATE-----
